target datalayout = "e-m:e-p270:32:32-p271:32:32-p272:64:64-i64:64-i128:128-f80:128-n8:16:32:64-S128"
target triple = "x86_64-pc-linux-gnu"

@.str = private unnamed_addr constant [112 x i8] c"generated/home/dtcxzyw/WorkSpace/Projects/compilers/llvm-opt-benchmark/bench/z3/z3/src/sat/smt/arith_axioms.cpp\00", align 1
@.str.17 = private unnamed_addr constant [29 x i8] c"UNEXPECTED CODE WAS REACHED.\00", align 1

; Function Attrs: mustprogress uwtable
define hidden noundef i32 @_ZN5arith6solver21bound2constraint_kindEbN6lp_api10bound_kindEb(ptr noundef nonnull align 8 dereferenceable(1000) %0, i1 noundef zeroext %1, i32 noundef %2, i1 noundef zeroext %3) #6 align 2 {
  %5 = alloca i32, align 4
  %6 = alloca ptr, align 8
  %7 = alloca i8, align 1
  %8 = alloca i32, align 4
  %9 = alloca i8, align 1
  store ptr %0, ptr %6, align 8, !tbaa !16
  %10 = zext i1 %1 to i8
  store i8 %10, ptr %7, align 1, !tbaa !10
  store i32 %2, ptr %8, align 4, !tbaa !224
  %11 = zext i1 %3 to i8
  store i8 %11, ptr %9, align 1, !tbaa !10
  %12 = load i32, ptr %8, align 4, !tbaa !224
  switch i32 %12, label %33 [
    i32 0, label %13
    i32 1, label %23
  ]

13:                                               ; preds = %4
  %14 = load i8, ptr %9, align 1, !tbaa !10, !range !12, !noundef !13
  %15 = trunc i8 %14 to i1
  br i1 %15, label %16, label %17

16:                                               ; preds = %13
  br label %21

17:                                               ; preds = %13
  %18 = load i8, ptr %7, align 1, !tbaa !10, !range !12, !noundef !13
  %19 = trunc i8 %18 to i1
  %20 = select i1 %19, i32 -2, i32 -1
  br label %21

21:                                               ; preds = %17, %16
  %22 = phi i32 [ 2, %16 ], [ %20, %17 ]
  store i32 %22, ptr %5, align 4
  br label %34

23:                                               ; preds = %4
  %24 = load i8, ptr %9, align 1, !tbaa !10, !range !12, !noundef !13
  %25 = trunc i8 %24 to i1
  br i1 %25, label %26, label %27

26:                                               ; preds = %23
  br label %31

27:                                               ; preds = %23
  %28 = load i8, ptr %7, align 1, !tbaa !10, !range !12, !noundef !13
  %29 = trunc i8 %28 to i1
  %30 = select i1 %29, i32 2, i32 1
  br label %31

31:                                               ; preds = %27, %26
  %32 = phi i32 [ -2, %26 ], [ %30, %27 ]
  store i32 %32, ptr %5, align 4
  br label %34

33:                                               ; preds = %4
  call void @_Z26notify_assertion_violationPKciS0_(ptr noundef @.str, i32 noundef 517, ptr noundef @.str.17)
  call void @_Z18invoke_exit_actionj(i32 noundef 114)
  store i32 0, ptr %5, align 4
  br label %34

34:                                               ; preds = %33, %31, %21
  %35 = load i32, ptr %5, align 4
  ret i32 %35
}