; Function Attrs: mustprogress uwtable
define hidden noundef range(i32 -2, 3) i32 @_ZN5arith6solver21bound2constraint_kindEbN6lp_api10bound_kindEb(ptr noundef nonnull readnone align 8 captures(none) dereferenceable(1000) %0, i1 noundef zeroext %1, i32 noundef %2, i1 noundef zeroext %3) local_unnamed_addr #4 align 2 {
  switch i32 %2, label %11 [
    i32 0, label %5
    i32 1, label %8
  ]

5:                                                ; preds = %4
  %6 = select i1 %1, i32 -2, i32 -1
  %7 = select i1 %3, i32 2, i32 %6
  br label %12

8:                                                ; preds = %4
  %9 = select i1 %1, i32 2, i32 1
  %10 = select i1 %3, i32 -2, i32 %9
  br label %12

11:                                               ; preds = %4
  tail call void @_Z26notify_assertion_violationPKciS0_(ptr noundef nonnull @.str, i32 noundef 517, ptr noundef nonnull @.str.17)
  tail call void @_Z18invoke_exit_actionj(i32 noundef 114)
  br label %12

12:                                               ; preds = %11, %8, %5
  %.0 = phi i32 [ 0, %11 ], [ %10, %8 ], [ %7, %5 ]
  ret i32 %.0
}